; Function Attrs: mustprogress nofree norecurse nosync nounwind willreturn memory(write, argmem: readwrite, inaccessiblemem: none) uwtable
define hidden void @_ZN6spacer10model_node6detachERPS0_(ptr noundef nonnull align 8 dereferenceable(49) %this, ptr nocapture noundef nonnull align 8 dereferenceable(8) %qhead) local_unnamed_addr #7 align 2 {
entry:
  %m_next = getelementptr inbounds i8, ptr %this, i64 24
  %0 = load ptr, ptr %m_next, align 8
  %cmp = icmp eq ptr %0, %this
  br i1 %cmp, label %if.end10.sink.split, label %if.else

if.else:                                          ; preds = %entry
  %m_prev = getelementptr inbounds i8, ptr %this, i64 32
  %1 = load ptr, ptr %m_prev, align 8
  %m_prev3 = getelementptr inbounds i8, ptr %0, i64 32
  store ptr %1, ptr %m_prev3, align 8
  %2 = load ptr, ptr %m_next, align 8
  %m_next6 = getelementptr inbounds i8, ptr %1, i64 24
  store ptr %2, ptr %m_next6, align 8
  %3 = load ptr, ptr %qhead, align 8
  %cmp7 = icmp eq ptr %3, %this
  br i1 %cmp7, label %if.end10.sink.split, label %if.end10

if.end10.sink.split:                              ; preds = %if.else, %entry
  %.sink = phi ptr [ null, %entry ], [ %2, %if.else ]
  store ptr %.sink, ptr %qhead, align 8
  br label %if.end10

if.end10:                                         ; preds = %if.end10.sink.split, %if.else
  tail call void @llvm.memset.p0.i64(ptr noundef nonnull align 8 dereferenceable(16) %m_next, i8 0, i64 16, i1 false)
  ret void
}